target datalayout = "e-m:e-p270:32:32-p271:32:32-p272:64:64-i64:64-i128:128-f80:128-n8:16:32:64-S128"
target triple = "x86_64-pc-linux-gnu"

%struct.psset_s = type { [64 x %struct.hpdata_age_heap_t], [1 x i64], %struct.psset_bin_stats_s, %struct.psset_stats_s, %struct.hpdata_empty_list_t, [128 x %struct.hpdata_purge_list_t], [2 x i64], %struct.hpdata_hugify_list_t }
%struct.hpdata_age_heap_t = type { %struct.ph_s }
%struct.ph_s = type { ptr, i64 }
%struct.psset_bin_stats_s = type { i64, i64, i64 }
%struct.psset_stats_s = type { [64 x [2 x %struct.psset_bin_stats_s]], [2 x %struct.psset_bin_stats_s], [2 x %struct.psset_bin_stats_s] }
%struct.hpdata_empty_list_t = type { %struct.anon }
%struct.anon = type { ptr }
%struct.hpdata_purge_list_t = type { %struct.anon.0 }
%struct.anon.0 = type { ptr }
%struct.hpdata_hugify_list_t = type { %struct.anon.1 }
%struct.anon.1 = type { ptr }
%struct.hpdata_s = type { ptr, i64, i8, i8, i8, i8, i8, %struct.nstime_t, i8, i8, i8, i8, i8, %union.anon, %struct.anon.3, %struct.anon.4, i64, i64, [8 x i64], i64, [8 x i64] }
%struct.nstime_t = type { i64 }
%union.anon = type { %struct.hpdata_age_heap_link_t }
%struct.hpdata_age_heap_link_t = type { %struct.phn_link_s }
%struct.phn_link_s = type { ptr, ptr, ptr }
%struct.anon.3 = type { ptr, ptr }
%struct.anon.4 = type { ptr, ptr }

; Function Attrs: inlinehint nounwind uwtable
define internal i32 @fls_lu(i64 noundef %0) #3 {
  %2 = alloca i64, align 8
  store i64 %0, ptr %2, align 8, !tbaa !16
  %3 = load i64, ptr %2, align 8, !tbaa !16
  %4 = icmp ne i64 %3, 0
  call void @util_assume(i1 noundef zeroext %4)
  %5 = load i64, ptr %2, align 8, !tbaa !16
  %6 = call i64 @llvm.ctlz.i64(i64 %5, i1 true)
  %7 = trunc i64 %6 to i32
  %8 = sext i32 %7 to i64
  %9 = xor i64 63, %8
  %10 = trunc i64 %9 to i32
  ret i32 %10
}

; Function Attrs: inlinehint nounwind uwtable
define internal i32 @fls_u64(i64 noundef %0) #3 {
  %2 = alloca i64, align 8
  store i64 %0, ptr %2, align 8, !tbaa !16
  %3 = load i64, ptr %2, align 8, !tbaa !16
  %4 = call i32 @fls_lu(i64 noundef %3)
  ret i32 %4
}

; Function Attrs: alwaysinline nounwind uwtable
define internal void @util_assume(i1 noundef zeroext %0) #5 {
  %2 = alloca i8, align 1
  %3 = zext i1 %0 to i8
  store i8 %3, ptr %2, align 1, !tbaa !33
  %4 = load i8, ptr %2, align 1, !tbaa !33, !range !35, !noundef !36
  %5 = trunc i8 %4 to i1
  br i1 %5, label %7, label %6

6:                                                ; preds = %1
  unreachable

7:                                                ; preds = %1
  ret void
}

; Function Attrs: inlinehint nounwind uwtable
define internal i32 @lg_floor(i64 noundef %0) #3 {
  %2 = alloca i64, align 8
  store i64 %0, ptr %2, align 8, !tbaa !16
  %3 = load i64, ptr %2, align 8, !tbaa !16
  %4 = icmp ne i64 %3, 0
  call void @util_assume(i1 noundef zeroext %4)
  %5 = load i64, ptr %2, align 8, !tbaa !16
  %6 = call i32 @fls_u64(i64 noundef %5)
  ret i32 %6
}

; Function Attrs: inlinehint nounwind uwtable
define internal i64 @hpdata_ndirty_get(ptr noundef %0) #3 {
  %2 = alloca ptr, align 8
  store ptr %0, ptr %2, align 8, !tbaa !32
  %3 = load ptr, ptr %2, align 8, !tbaa !32
  %4 = getelementptr inbounds nuw %struct.hpdata_s, ptr %3, i32 0, i32 19
  %5 = load i64, ptr %4, align 8, !tbaa !56
  %6 = load ptr, ptr %2, align 8, !tbaa !32
  %7 = getelementptr inbounds nuw %struct.hpdata_s, ptr %6, i32 0, i32 17
  %8 = load i64, ptr %7, align 8, !tbaa !48
  %9 = sub i64 %5, %8
  ret i64 %9
}

; Function Attrs: inlinehint nounwind uwtable
define internal i64 @hpdata_nactive_get(ptr noundef %0) #3 {
  %2 = alloca ptr, align 8
  store ptr %0, ptr %2, align 8, !tbaa !32
  %3 = load ptr, ptr %2, align 8, !tbaa !32
  %4 = getelementptr inbounds nuw %struct.hpdata_s, ptr %3, i32 0, i32 17
  %5 = load i64, ptr %4, align 8, !tbaa !48
  ret i64 %5
}

; Function Attrs: inlinehint nounwind uwtable
define internal zeroext i1 @hpdata_huge_get(ptr noundef %0) #3 {
  %2 = alloca ptr, align 8
  store ptr %0, ptr %2, align 8, !tbaa !32
  %3 = load ptr, ptr %2, align 8, !tbaa !32
  %4 = getelementptr inbounds nuw %struct.hpdata_s, ptr %3, i32 0, i32 2
  %5 = load i8, ptr %4, align 8, !tbaa !55, !range !35, !noundef !36
  %6 = trunc i8 %5 to i1
  ret i1 %6
}

; Function Attrs: inlinehint nounwind uwtable
define internal i32 @lg_ceil(i64 noundef %0) #3 {
  %2 = alloca i64, align 8
  store i64 %0, ptr %2, align 8, !tbaa !16
  %3 = load i64, ptr %2, align 8, !tbaa !16
  %4 = call i32 @lg_floor(i64 noundef %3)
  %5 = load i64, ptr %2, align 8, !tbaa !16
  %6 = load i64, ptr %2, align 8, !tbaa !16
  %7 = sub i64 %6, 1
  %8 = and i64 %5, %7
  %9 = icmp eq i64 %8, 0
  %10 = select i1 %9, i32 0, i32 1
  %11 = add i32 %4, %10
  ret i32 %11
}

; Function Attrs: alwaysinline nounwind uwtable
define internal void @psset_bin_stats_insert_remove(ptr noundef %0, ptr noundef %1, ptr noundef %2, i1 noundef zeroext %3) #5 {
  %5 = alloca ptr, align 8
  %6 = alloca ptr, align 8
  %7 = alloca ptr, align 8
  %8 = alloca i8, align 1
  %9 = alloca i64, align 8
  %10 = alloca i64, align 8
  store ptr %0, ptr %5, align 8, !tbaa !4
  store ptr %1, ptr %6, align 8, !tbaa !26
  store ptr %2, ptr %7, align 8, !tbaa !32
  %11 = zext i1 %3 to i8
  store i8 %11, ptr %8, align 1, !tbaa !33
  call void @llvm.lifetime.start.p0(i64 8, ptr %9) #8
  %12 = load i8, ptr %8, align 1, !tbaa !33, !range !35, !noundef !36
  %13 = trunc i8 %12 to i1
  %14 = select i1 %13, i64 1, i64 -1
  store i64 %14, ptr %9, align 8, !tbaa !16
  call void @llvm.lifetime.start.p0(i64 8, ptr %10) #8
  %15 = load ptr, ptr %7, align 8, !tbaa !32
  %16 = call zeroext i1 @hpdata_huge_get(ptr noundef %15)
  %17 = zext i1 %16 to i64
  store i64 %17, ptr %10, align 8, !tbaa !16
  %18 = load i64, ptr %9, align 8, !tbaa !16
  %19 = mul i64 %18, 1
  %20 = load ptr, ptr %6, align 8, !tbaa !26
  %21 = load i64, ptr %10, align 8, !tbaa !16
  %22 = getelementptr inbounds nuw %struct.psset_bin_stats_s, ptr %20, i64 %21
  %23 = getelementptr inbounds nuw %struct.psset_bin_stats_s, ptr %22, i32 0, i32 0
  %24 = load i64, ptr %23, align 8, !tbaa !28
  %25 = add i64 %24, %19
  store i64 %25, ptr %23, align 8, !tbaa !28
  %26 = load i64, ptr %9, align 8, !tbaa !16
  %27 = load ptr, ptr %7, align 8, !tbaa !32
  %28 = call i64 @hpdata_nactive_get(ptr noundef %27)
  %29 = mul i64 %26, %28
  %30 = load ptr, ptr %6, align 8, !tbaa !26
  %31 = load i64, ptr %10, align 8, !tbaa !16
  %32 = getelementptr inbounds nuw %struct.psset_bin_stats_s, ptr %30, i64 %31
  %33 = getelementptr inbounds nuw %struct.psset_bin_stats_s, ptr %32, i32 0, i32 1
  %34 = load i64, ptr %33, align 8, !tbaa !30
  %35 = add i64 %34, %29
  store i64 %35, ptr %33, align 8, !tbaa !30
  %36 = load i64, ptr %9, align 8, !tbaa !16
  %37 = load ptr, ptr %7, align 8, !tbaa !32
  %38 = call i64 @hpdata_ndirty_get(ptr noundef %37)
  %39 = mul i64 %36, %38
  %40 = load ptr, ptr %6, align 8, !tbaa !26
  %41 = load i64, ptr %10, align 8, !tbaa !16
  %42 = getelementptr inbounds nuw %struct.psset_bin_stats_s, ptr %40, i64 %41
  %43 = getelementptr inbounds nuw %struct.psset_bin_stats_s, ptr %42, i32 0, i32 2
  %44 = load i64, ptr %43, align 8, !tbaa !31
  %45 = add i64 %44, %39
  store i64 %45, ptr %43, align 8, !tbaa !31
  %46 = load i64, ptr %9, align 8, !tbaa !16
  %47 = mul i64 %46, 1
  %48 = load ptr, ptr %5, align 8, !tbaa !4
  %49 = getelementptr inbounds nuw %struct.psset_s, ptr %48, i32 0, i32 2
  %50 = getelementptr inbounds nuw %struct.psset_bin_stats_s, ptr %49, i32 0, i32 0
  %51 = load i64, ptr %50, align 8, !tbaa !50
  %52 = add i64 %51, %47
  store i64 %52, ptr %50, align 8, !tbaa !50
  %53 = load i64, ptr %9, align 8, !tbaa !16
  %54 = load ptr, ptr %7, align 8, !tbaa !32
  %55 = call i64 @hpdata_nactive_get(ptr noundef %54)
  %56 = mul i64 %53, %55
  %57 = load ptr, ptr %5, align 8, !tbaa !4
  %58 = getelementptr inbounds nuw %struct.psset_s, ptr %57, i32 0, i32 2
  %59 = getelementptr inbounds nuw %struct.psset_bin_stats_s, ptr %58, i32 0, i32 1
  %60 = load i64, ptr %59, align 8, !tbaa !53
  %61 = add i64 %60, %56
  store i64 %61, ptr %59, align 8, !tbaa !53
  %62 = load i64, ptr %9, align 8, !tbaa !16
  %63 = load ptr, ptr %7, align 8, !tbaa !32
  %64 = call i64 @hpdata_ndirty_get(ptr noundef %63)
  %65 = mul i64 %62, %64
  %66 = load ptr, ptr %5, align 8, !tbaa !4
  %67 = getelementptr inbounds nuw %struct.psset_s, ptr %66, i32 0, i32 2
  %68 = getelementptr inbounds nuw %struct.psset_bin_stats_s, ptr %67, i32 0, i32 2
  %69 = load i64, ptr %68, align 8, !tbaa !54
  %70 = add i64 %69, %65
  store i64 %70, ptr %68, align 8, !tbaa !54
  call void @llvm.lifetime.end.p0(i64 8, ptr %10) #8
  call void @llvm.lifetime.end.p0(i64 8, ptr %9) #8
  ret void
}

; Function Attrs: alwaysinline nounwind uwtable
define internal i32 @sz_psz2ind(i64 noundef %0) #5 {
  %2 = alloca i32, align 4
  %3 = alloca i64, align 8
  %4 = alloca i32, align 4
  %5 = alloca i32, align 4
  %6 = alloca i32, align 4
  %7 = alloca i32, align 4
  %8 = alloca i32, align 4
  %9 = alloca i32, align 4
  store i64 %0, ptr %3, align 8, !tbaa !16
  br label %10

10:                                               ; preds = %1
  br label %11

11:                                               ; preds = %10
  %12 = load i64, ptr %3, align 8, !tbaa !16
  %13 = icmp ugt i64 %12, 8070450532247928832
  %14 = xor i1 %13, true
  %15 = xor i1 %14, true
  %16 = zext i1 %15 to i32
  %17 = sext i32 %16 to i64
  %18 = call i64 @llvm.expect.i64(i64 %17, i64 0)
  %19 = icmp ne i64 %18, 0
  br i1 %19, label %20, label %21

20:                                               ; preds = %11
  store i32 199, ptr %2, align 4
  br label %54

21:                                               ; preds = %11
  call void @llvm.lifetime.start.p0(i64 4, ptr %4) #8
  %22 = load i64, ptr %3, align 8, !tbaa !16
  %23 = call i32 @lg_ceil(i64 noundef %22)
  store i32 %23, ptr %4, align 4, !tbaa !9
  call void @llvm.lifetime.start.p0(i64 4, ptr %5) #8
  %24 = load i32, ptr %4, align 4, !tbaa !9
  %25 = icmp ult i32 %24, 14
  br i1 %25, label %26, label %27

26:                                               ; preds = %21
  br label %30

27:                                               ; preds = %21
  %28 = load i32, ptr %4, align 4, !tbaa !9
  %29 = sub i32 %28, 14
  br label %30

30:                                               ; preds = %27, %26
  %31 = phi i32 [ 0, %26 ], [ %29, %27 ]
  store i32 %31, ptr %5, align 4, !tbaa !9
  call void @llvm.lifetime.start.p0(i64 4, ptr %6) #8
  %32 = load i32, ptr %5, align 4, !tbaa !9
  %33 = icmp eq i32 %32, 0
  br i1 %33, label %34, label %35

34:                                               ; preds = %30
  br label %39

35:                                               ; preds = %30
  %36 = load i32, ptr %5, align 4, !tbaa !9
  %37 = sub i32 %36, 1
  %38 = add i32 12, %37
  br label %39

39:                                               ; preds = %35, %34
  %40 = phi i32 [ 12, %34 ], [ %38, %35 ]
  store i32 %40, ptr %6, align 4, !tbaa !9
  call void @llvm.lifetime.start.p0(i64 4, ptr %7) #8
  %41 = load i64, ptr %3, align 8, !tbaa !16
  %42 = sub i64 %41, 1
  %43 = load i32, ptr %6, align 4, !tbaa !9
  %44 = zext i32 %43 to i64
  %45 = lshr i64 %42, %44
  %46 = and i64 %45, 3
  %47 = trunc i64 %46 to i32
  store i32 %47, ptr %7, align 4, !tbaa !9
  call void @llvm.lifetime.start.p0(i64 4, ptr %8) #8
  %48 = load i32, ptr %5, align 4, !tbaa !9
  %49 = shl i32 %48, 2
  store i32 %49, ptr %8, align 4, !tbaa !9
  call void @llvm.lifetime.start.p0(i64 4, ptr %9) #8
  %50 = load i32, ptr %8, align 4, !tbaa !9
  %51 = load i32, ptr %7, align 4, !tbaa !9
  %52 = add i32 %50, %51
  store i32 %52, ptr %9, align 4, !tbaa !9
  %53 = load i32, ptr %9, align 4, !tbaa !9
  store i32 %53, ptr %2, align 4
  call void @llvm.lifetime.end.p0(i64 4, ptr %9) #8
  call void @llvm.lifetime.end.p0(i64 4, ptr %8) #8
  call void @llvm.lifetime.end.p0(i64 4, ptr %7) #8
  call void @llvm.lifetime.end.p0(i64 4, ptr %6) #8
  call void @llvm.lifetime.end.p0(i64 4, ptr %5) #8
  call void @llvm.lifetime.end.p0(i64 4, ptr %4) #8
  br label %54

54:                                               ; preds = %39, %20
  %55 = load i32, ptr %2, align 4
  ret i32 %55
}

; Function Attrs: inlinehint nounwind uwtable
define internal i64 @hpdata_longest_free_range_get(ptr noundef %0) #3 {
  %2 = alloca ptr, align 8
  store ptr %0, ptr %2, align 8, !tbaa !32
  %3 = load ptr, ptr %2, align 8, !tbaa !32
  %4 = getelementptr inbounds nuw %struct.hpdata_s, ptr %3, i32 0, i32 16
  %5 = load i64, ptr %4, align 8, !tbaa !49
  ret i64 %5
}

; Function Attrs: inlinehint nounwind uwtable
define internal zeroext i1 @hpdata_full(ptr noundef %0) #3 {
  %2 = alloca ptr, align 8
  store ptr %0, ptr %2, align 8, !tbaa !32
  %3 = load ptr, ptr %2, align 8, !tbaa !32
  %4 = getelementptr inbounds nuw %struct.hpdata_s, ptr %3, i32 0, i32 17
  %5 = load i64, ptr %4, align 8, !tbaa !48
  %6 = icmp eq i64 %5, 512
  ret i1 %6
}

; Function Attrs: nounwind uwtable
define internal void @psset_bin_stats_remove(ptr noundef %0, ptr noundef %1, ptr noundef %2) #0 {
  %4 = alloca ptr, align 8
  %5 = alloca ptr, align 8
  %6 = alloca ptr, align 8
  store ptr %0, ptr %4, align 8, !tbaa !4
  store ptr %1, ptr %5, align 8, !tbaa !26
  store ptr %2, ptr %6, align 8, !tbaa !32
  %7 = load ptr, ptr %4, align 8, !tbaa !4
  %8 = load ptr, ptr %5, align 8, !tbaa !26
  %9 = load ptr, ptr %6, align 8, !tbaa !32
  call void @psset_bin_stats_insert_remove(ptr noundef %7, ptr noundef %8, ptr noundef %9, i1 noundef zeroext false)
  ret void
}

; Function Attrs: inlinehint nounwind uwtable
define internal zeroext i1 @hpdata_empty(ptr noundef %0) #3 {
  %2 = alloca ptr, align 8
  store ptr %0, ptr %2, align 8, !tbaa !32
  %3 = load ptr, ptr %2, align 8, !tbaa !32
  %4 = getelementptr inbounds nuw %struct.hpdata_s, ptr %3, i32 0, i32 17
  %5 = load i64, ptr %4, align 8, !tbaa !48
  %6 = icmp eq i64 %5, 0
  ret i1 %6
}

; Function Attrs: nounwind uwtable
define internal void @psset_stats_remove(ptr noundef %0, ptr noundef %1) #0 {
  %3 = alloca ptr, align 8
  %4 = alloca ptr, align 8
  %5 = alloca i64, align 8
  %6 = alloca i32, align 4
  store ptr %0, ptr %3, align 8, !tbaa !4
  store ptr %1, ptr %4, align 8, !tbaa !32
  %7 = load ptr, ptr %4, align 8, !tbaa !32
  %8 = call zeroext i1 @hpdata_empty(ptr noundef %7)
  br i1 %8, label %9, label %16

9:                                                ; preds = %2
  %10 = load ptr, ptr %3, align 8, !tbaa !4
  %11 = load ptr, ptr %3, align 8, !tbaa !4
  %12 = getelementptr inbounds nuw %struct.psset_s, ptr %11, i32 0, i32 3
  %13 = getelementptr inbounds nuw %struct.psset_stats_s, ptr %12, i32 0, i32 2
  %14 = getelementptr inbounds [2 x %struct.psset_bin_stats_s], ptr %13, i64 0, i64 0
  %15 = load ptr, ptr %4, align 8, !tbaa !32
  call void @psset_bin_stats_remove(ptr noundef %10, ptr noundef %14, ptr noundef %15)
  br label %46

16:                                               ; preds = %2
  %17 = load ptr, ptr %4, align 8, !tbaa !32
  %18 = call zeroext i1 @hpdata_full(ptr noundef %17)
  br i1 %18, label %19, label %26

19:                                               ; preds = %16
  %20 = load ptr, ptr %3, align 8, !tbaa !4
  %21 = load ptr, ptr %3, align 8, !tbaa !4
  %22 = getelementptr inbounds nuw %struct.psset_s, ptr %21, i32 0, i32 3
  %23 = getelementptr inbounds nuw %struct.psset_stats_s, ptr %22, i32 0, i32 1
  %24 = getelementptr inbounds [2 x %struct.psset_bin_stats_s], ptr %23, i64 0, i64 0
  %25 = load ptr, ptr %4, align 8, !tbaa !32
  call void @psset_bin_stats_remove(ptr noundef %20, ptr noundef %24, ptr noundef %25)
  br label %45

26:                                               ; preds = %16
  call void @llvm.lifetime.start.p0(i64 8, ptr %5) #8
  %27 = load ptr, ptr %4, align 8, !tbaa !32
  %28 = call i64 @hpdata_longest_free_range_get(ptr noundef %27)
  store i64 %28, ptr %5, align 8, !tbaa !16
  call void @llvm.lifetime.start.p0(i64 4, ptr %6) #8
  %29 = load i64, ptr %5, align 8, !tbaa !16
  %30 = shl i64 %29, 12
  %31 = call i64 @je_sz_psz_quantize_floor(i64 noundef %30)
  %32 = call i32 @sz_psz2ind(i64 noundef %31)
  store i32 %32, ptr %6, align 4, !tbaa !9
  br label %33

33:                                               ; preds = %26
  br label %34

34:                                               ; preds = %33
  br label %35

35:                                               ; preds = %34
  %36 = load ptr, ptr %3, align 8, !tbaa !4
  %37 = load ptr, ptr %3, align 8, !tbaa !4
  %38 = getelementptr inbounds nuw %struct.psset_s, ptr %37, i32 0, i32 3
  %39 = getelementptr inbounds nuw %struct.psset_stats_s, ptr %38, i32 0, i32 0
  %40 = load i32, ptr %6, align 4, !tbaa !9
  %41 = zext i32 %40 to i64
  %42 = getelementptr inbounds nuw [64 x [2 x %struct.psset_bin_stats_s]], ptr %39, i64 0, i64 %41
  %43 = getelementptr inbounds [2 x %struct.psset_bin_stats_s], ptr %42, i64 0, i64 0
  %44 = load ptr, ptr %4, align 8, !tbaa !32
  call void @psset_bin_stats_remove(ptr noundef %36, ptr noundef %43, ptr noundef %44)
  call void @llvm.lifetime.end.p0(i64 4, ptr %6) #8
  call void @llvm.lifetime.end.p0(i64 8, ptr %5) #8
  br label %45

45:                                               ; preds = %35, %19
  br label %46

46:                                               ; preds = %45, %9
  ret void
}