; Function Attrs: nounwind uwtable
define internal fastcc void @psset_stats_remove(ptr noundef captures(none) %0, ptr noundef readonly captures(none) %1) unnamed_addr #0 {
  %3 = getelementptr i8, ptr %1, i64 104
  %.val = load i64, ptr %3, align 8, !tbaa !24
  switch i64 %.val, label %44 [
    i64 0, label %4
    i64 512, label %21
  ]

4:                                                ; preds = %2
  %5 = getelementptr inbounds nuw i8, ptr %0, i64 4176
  %6 = getelementptr i8, ptr %1, i64 16
  %.val.i = load i8, ptr %6, align 8, !tbaa !25, !range !22, !noundef !23
  %7 = zext nneg i8 %.val.i to i64
  %8 = getelementptr inbounds nuw %struct.psset_bin_stats_s, ptr %5, i64 %7
  %9 = load i64, ptr %8, align 8, !tbaa !6
  %10 = add i64 %9, -1
  store i64 %10, ptr %8, align 8, !tbaa !6
  %11 = getelementptr i8, ptr %1, i64 176
  %.val8.i = load i64, ptr %11, align 8, !tbaa !26
  %12 = getelementptr inbounds nuw i8, ptr %8, i64 16
  %13 = load i64, ptr %12, align 8, !tbaa !12
  %14 = sub i64 %13, %.val8.i
  store i64 %14, ptr %12, align 8, !tbaa !12
  %15 = getelementptr inbounds nuw i8, ptr %0, i64 1032
  %16 = load i64, ptr %15, align 8, !tbaa !27
  %17 = add i64 %16, -1
  store i64 %17, ptr %15, align 8, !tbaa !27
  %18 = getelementptr inbounds nuw i8, ptr %0, i64 1048
  %19 = load i64, ptr %18, align 8, !tbaa !32
  %20 = sub i64 %19, %.val8.i
  store i64 %20, ptr %18, align 8, !tbaa !32
  br label %88

21:                                               ; preds = %2
  %22 = getelementptr inbounds nuw i8, ptr %0, i64 4128
  %23 = getelementptr i8, ptr %1, i64 16
  %.val.i15 = load i8, ptr %23, align 8, !tbaa !25, !range !22, !noundef !23
  %24 = zext nneg i8 %.val.i15 to i64
  %25 = getelementptr inbounds nuw %struct.psset_bin_stats_s, ptr %22, i64 %24
  %26 = load i64, ptr %25, align 8, !tbaa !6
  %27 = add i64 %26, -1
  store i64 %27, ptr %25, align 8, !tbaa !6
  %28 = getelementptr inbounds nuw i8, ptr %25, i64 8
  %29 = load i64, ptr %28, align 8, !tbaa !11
  %30 = add i64 %29, -512
  store i64 %30, ptr %28, align 8, !tbaa !11
  %31 = getelementptr i8, ptr %1, i64 176
  %.val8.i17 = load i64, ptr %31, align 8, !tbaa !26
  %.neg.i18 = sub i64 512, %.val8.i17
  %32 = getelementptr inbounds nuw i8, ptr %25, i64 16
  %33 = load i64, ptr %32, align 8, !tbaa !12
  %34 = add i64 %33, %.neg.i18
  store i64 %34, ptr %32, align 8, !tbaa !12
  %35 = getelementptr inbounds nuw i8, ptr %0, i64 1032
  %36 = load i64, ptr %35, align 8, !tbaa !27
  %37 = add i64 %36, -1
  store i64 %37, ptr %35, align 8, !tbaa !27
  %38 = getelementptr inbounds nuw i8, ptr %0, i64 1040
  %39 = load i64, ptr %38, align 8, !tbaa !33
  %40 = add i64 %39, -512
  store i64 %40, ptr %38, align 8, !tbaa !33
  %41 = getelementptr inbounds nuw i8, ptr %0, i64 1048
  %42 = load i64, ptr %41, align 8, !tbaa !32
  %43 = add i64 %42, %.neg.i18
  store i64 %43, ptr %41, align 8, !tbaa !32
  br label %88

44:                                               ; preds = %2
  %45 = getelementptr i8, ptr %1, i64 96
  %.val14 = load i64, ptr %45, align 8, !tbaa !34
  %46 = shl i64 %.val14, 12
  %47 = tail call i64 @je_sz_psz_quantize_floor(i64 noundef %46) #9
  %48 = icmp ugt i64 %47, 8070450532247928832
  br i1 %48, label %sz_psz2ind.exit, label %49, !prof !35

49:                                               ; preds = %44
  %50 = icmp ne i64 %47, 0
  tail call void @llvm.assume(i1 %50)
  %51 = add nsw i64 %47, -1
  %52 = tail call range(i64 0, 65) i64 @llvm.ctlz.i64(i64 %51, i1 false)
  %53 = trunc nuw nsw i64 %52 to i32
  %54 = tail call i32 @llvm.usub.sat.i32(i32 50, i32 %53)
  %55 = icmp samesign ult i64 %47, 16385
  %56 = add nuw nsw i32 %54, 11
  %57 = zext nneg i32 %56 to i64
  %58 = select i1 %55, i64 12, i64 %57
  %59 = lshr i64 %51, %58
  %60 = trunc i64 %59 to i32
  %61 = and i32 %60, 3
  %62 = shl nuw nsw i32 %54, 2
  %63 = or disjoint i32 %61, %62
  %64 = zext nneg i32 %63 to i64
  br label %sz_psz2ind.exit

sz_psz2ind.exit:                                  ; preds = %44, %49
  %.0.i = phi i64 [ %64, %49 ], [ 199, %44 ]
  %65 = getelementptr inbounds nuw i8, ptr %0, i64 1056
  %66 = getelementptr inbounds nuw [64 x [2 x %struct.psset_bin_stats_s]], ptr %65, i64 0, i64 %.0.i
  %67 = getelementptr i8, ptr %1, i64 16
  %.val.i19 = load i8, ptr %67, align 8, !tbaa !25, !range !22, !noundef !23
  %68 = zext nneg i8 %.val.i19 to i64
  %69 = getelementptr inbounds nuw %struct.psset_bin_stats_s, ptr %66, i64 %68
  %70 = load i64, ptr %69, align 8, !tbaa !6
  %71 = add i64 %70, -1
  store i64 %71, ptr %69, align 8, !tbaa !6
  %.val4.i20 = load i64, ptr %3, align 8, !tbaa !24
  %72 = getelementptr inbounds nuw i8, ptr %69, i64 8
  %73 = load i64, ptr %72, align 8, !tbaa !11
  %74 = sub i64 %73, %.val4.i20
  store i64 %74, ptr %72, align 8, !tbaa !11
  %75 = getelementptr i8, ptr %1, i64 176
  %.val8.i21 = load i64, ptr %75, align 8, !tbaa !26
  %.neg.i22 = sub i64 %.val4.i20, %.val8.i21
  %76 = getelementptr inbounds nuw i8, ptr %69, i64 16
  %77 = load i64, ptr %76, align 8, !tbaa !12
  %78 = add i64 %77, %.neg.i22
  store i64 %78, ptr %76, align 8, !tbaa !12
  %79 = getelementptr inbounds nuw i8, ptr %0, i64 1032
  %80 = load i64, ptr %79, align 8, !tbaa !27
  %81 = add i64 %80, -1
  store i64 %81, ptr %79, align 8, !tbaa !27
  %82 = getelementptr inbounds nuw i8, ptr %0, i64 1040
  %83 = load i64, ptr %82, align 8, !tbaa !33
  %84 = sub i64 %83, %.val4.i20
  store i64 %84, ptr %82, align 8, !tbaa !33
  %85 = getelementptr inbounds nuw i8, ptr %0, i64 1048
  %86 = load i64, ptr %85, align 8, !tbaa !32
  %87 = add i64 %86, %.neg.i22
  store i64 %87, ptr %85, align 8, !tbaa !32
  br label %88

88:                                               ; preds = %21, %sz_psz2ind.exit, %4
  ret void
}